Certificate:
    Data:
        Version: 3 (0x2)
        Serial Number: 55 (0x37)
        Signature Algorithm: sha256WithRSAEncryption
        Issuer: C=US, O=Google, OU=Enterprise, CN=Enterprise Subordinate CA
        Validity
            Not Before: Jul  4 18:13:18 2023 GMT
            Not After : Oct 11 18:13:18 2025 GMT
        Subject: C=US, O=Google, OU=Enterprise, CN=webhook.esodemoapp2.com
        Subject Public Key Info:
            Public Key Algorithm: rsaEncryption
                Public-Key: (2048 bit)
                Modulus:
                    00:b2:cb:27:55:95:7b:35:04:30:d4:dd:87:01:35:
                    31:01:0f:fb:17:5c:76:3f:2e:94:c8:12:70:7f:ec:
                    02:51:bd:50:c0:36:51:43:fa:f4:8a:39:b1:b9:44:
                    e8:ca:41:73:45:0e:8a:3d:a6:fa:91:98:fc:40:19:
                    8c:15:e0:42:7a:41:c9:b4:1a:3d:8a:bc:81:b6:58:
                    15:94:b3:eb:96:c1:32:4d:2a:79:73:ea:d9:d9:ae:
                    f2:4e:ec:2b:9c:e3:78:7b:20:30:11:4a:dc:b3:44:
                    1b:78:94:fe:dc:91:70:0e:0f:7d:48:bb:e5:81:43:
                    1c:5f:4c:6b:f2:fd:d5:f2:72:00:67:bf:c7:a0:ae:
                    8b:e4:2c:59:a8:58:48:fd:fb:42:b7:b7:ff:5f:f9:
                    ee:18:92:59:d6:c1:b6:12:5b:75:15:83:e2:13:86:
                    51:95:76:2a:a9:9f:36:bd:37:ba:fe:d6:d0:7e:1d:
                    e2:2b:27:57:77:12:cd:0e:31:ca:79:e8:03:0f:9a:
                    cb:fd:14:dc:65:7b:74:ec:73:a3:e3:f1:5e:16:3f:
                    d5:52:6c:0e:90:93:e6:d3:88:04:d2:40:61:a5:c7:
                    94:6c:6d:f3:81:a9:37:08:47:6f:90:3c:d8:e4:a8:
                    77:9a:1c:8b:2c:88:86:b9:5b:29:02:88:a2:95:fe:
                    db:87
                Exponent: 65537 (0x10001)
        X509v3 extensions:
            X509v3 Key Usage: critical
                Digital Signature
            X509v3 Basic Constraints: 
                CA:FALSE
            X509v3 Extended Key Usage: 
                TLS Web Server Authentication
            X509v3 Subject Key Identifier: 
                8E:07:84:BA:2B:FF:FD:24:7C:BF:F9:68:60:2D:63:E2:AA:C3:B1:B6
            X509v3 Authority Key Identifier: 
                B7:BA:B0:02:A1:E7:BE:34:C6:C1:05:5C:66:78:E5:BB:53:5D:A1:54
            Authority Information Access: 
                CA Issuers - URI:http://pki.esodemoapp2.com/ca/tls-ca.cer
            X509v3 CRL Distribution Points: 
                Full Name:
                  URI:http://pki.esodemoapp2.com/ca/tls-ca.crl
            X509v3 Subject Alternative Name: 
                DNS:webhook.esodemoapp2.com
    Signature Algorithm: sha256WithRSAEncryption
    Signature Value:
        2c:47:53:f1:6f:60:10:27:83:e9:61:d8:21:9b:f2:31:e9:cb:
        92:b9:bf:da:57:92:30:71:de:24:c8:0a:5b:40:2b:1a:3e:50:
        d4:18:f6:18:24:9a:1f:d9:03:fd:80:48:6d:9e:b6:b0:f8:21:
        08:6f:da:0b:5b:ba:ba:86:9e:b1:5f:07:fa:32:81:38:d6:d6:
        9e:fe:7f:70:17:d9:98:a7:5b:29:63:e6:d4:bd:77:b3:f1:05:
        92:87:d7:e3:c1:f1:ce:c6:13:b8:a8:03:38:6a:7a:29:d9:18:
        d5:27:ab:af:34:42:d2:21:c5:c3:0a:18:90:45:73:d9:7d:9d:
        e5:34:fd:74:ec:0e:c1:98:75:e3:d4:51:55:9c:57:ca:e0:b4:
        a8:c7:2a:54:0e:53:19:5c:76:f7:40:e9:d6:a1:3f:df:44:9e:
        0f:39:f3:09:29:0e:69:e5:56:1c:4f:4f:40:2a:3a:c2:c2:82:
        3d:7f:41:42:bd:1f:e9:1a:43:93:42:aa:63:69:ff:47:10:78:
        fb:a3:36:20:b4:8e:37:15:85:d3:e8:19:8a:39:da:28:37:cb:
        2b:a4:ed:ca:b2:0f:ab:60:1d:67:4b:b6:86:1f:63:6b:35:3c:
        39:b2:42:26:ad:92:da:21:ef:7e:c8:47:26:7d:9a:7a:a0:ac:
        ee:d7:fd:13
-----BEGIN CERTIFICATE-----
MIIEQjCCAyqgAwIBAgIBNzANBgkqhkiG9w0BAQsFADBXMQswCQYDVQQGEwJVUzEP
MA0GA1UECgwGR29vZ2xlMRMwEQYDVQQLDApFbnRlcnByaXNlMSIwIAYDVQQDDBlF
bnRlcnByaXNlIFN1Ym9yZGluYXRlIENBMB4XDTIzMDcwNDE4MTMxOFoXDTI1MTAx
MTE4MTMxOFowVTELMAkGA1UEBhMCVVMxDzANBgNVBAoMBkdvb2dsZTETMBEGA1UE
CwwKRW50ZXJwcmlzZTEgMB4GA1UEAwwXd2ViaG9vay5lc29kZW1vYXBwMi5jb20w
ggEiMA0GCSqGSIb3DQEBAQUAA4IBDwAwggEKAoIBAQCyyydVlXs1BDDU3YcBNTEB
D/sXXHY/LpTIEnB/7AJRvVDANlFD+vSKObG5ROjKQXNFDoo9pvqRmPxAGYwV4EJ6
Qcm0Gj2KvIG2WBWUs+uWwTJNKnlz6tnZrvJO7Cuc43h7IDARStyzRBt4lP7ckXAO
D31Iu+WBQxxfTGvy/dXycgBnv8egrovkLFmoWEj9+0K3t/9f+e4YklnWwbYSW3UV
g+IThlGVdiqpnza9N7r+1tB+HeIrJ1d3Es0OMcp56AMPmsv9FNxle3Tsc6Pj8V4W
P9VSbA6Qk+bTiATSQGGlx5RsbfOBqTcIR2+QPNjkqHeaHIssiIa5WykCiKKV/tuH
AgMBAAGjggEZMIIBFTAOBgNVHQ8BAf8EBAMCB4AwCQYDVR0TBAIwADATBgNVHSUE
DDAKBggrBgEFBQcDATAdBgNVHQ4EFgQUjgeEuiv//SR8v/loYC1j4qrDsbYwHwYD
VR0jBBgwFoAUt7qwAqHnvjTGwQVcZnjlu1NdoVQwRAYIKwYBBQUHAQEEODA2MDQG
CCsGAQUFBzAChihodHRwOi8vcGtpLmVzb2RlbW9hcHAyLmNvbS9jYS90bHMtY2Eu
Y2VyMDkGA1UdHwQyMDAwLqAsoCqGKGh0dHA6Ly9wa2kuZXNvZGVtb2FwcDIuY29t
L2NhL3Rscy1jYS5jcmwwIgYDVR0RBBswGYIXd2ViaG9vay5lc29kZW1vYXBwMi5j
b20wDQYJKoZIhvcNAQELBQADggEBACxHU/FvYBAng+lh2CGb8jHpy5K5v9pXkjBx
3iTICltAKxo+UNQY9hgkmh/ZA/2ASG2etrD4IQhv2gtburqGnrFfB/oygTjW1p7+
f3AX2ZinWylj5tS9d7PxBZKH1+PB8c7GE7ioAzhqeinZGNUnq680QtIhxcMKGJBF
c9l9neU0/XTsDsGYdePUUVWcV8rgtKjHKlQOUxlcdvdA6dahP99Eng858wkpDmnl
VhxPT0AqOsLCgj1/QUK9H+kaQ5NCqmNp/0cQePujNiC0jjcVhdPoGYo52ig3yyuk
7cqyD6tgHWdLtoYfY2s1PDmyQiatktoh737IRyZ9mnqgrO7X/RM=
-----END CERTIFICATE-----
