Certificate:
    Data:
        Version: 3 (0x2)
        Serial Number: 55 (0x37)
        Signature Algorithm: sha1WithRSAEncryption
        Issuer: C=US, O=Google, OU=Enterprise, CN=Enterprise Subordinate CA
        Validity
            Not Before: Oct 23 12:08:28 2021 GMT
            Not After : Apr 15 12:08:28 2027 GMT
        Subject: C=US, O=Google, OU=Enterprise, CN=webhook.domain.com
        Subject Public Key Info:
            Public Key Algorithm: rsaEncryption
                RSA Public-Key: (2048 bit)
                Modulus:
                    00:be:ee:90:27:bb:29:26:df:87:fd:9f:da:42:a0:
                    79:b0:c2:8a:e0:c6:16:c0:fd:be:c5:f0:05:ae:f1:
                    b2:19:f2:6b:a8:2c:4d:53:ed:51:3c:4d:5e:1e:5c:
                    8d:86:4c:09:51:7e:52:53:d9:6f:72:e2:1a:1e:c9:
                    8a:60:78:a3:c3:2d:33:cb:79:e4:f4:97:32:d9:7d:
                    99:61:e4:fc:80:eb:2d:3c:27:ce:3c:55:54:d6:34:
                    1e:17:12:ed:6d:1e:b8:08:e7:d4:89:64:fd:33:e5:
                    28:c0:f9:00:25:f3:f3:26:08:ba:98:f4:d0:4c:6f:
                    3e:cb:5f:b1:d8:ed:e0:2a:f9:82:b4:e4:0d:75:4a:
                    fc:25:ff:5c:a3:27:51:00:ac:03:96:61:ac:69:3a:
                    9a:1a:3c:66:96:a4:40:95:94:ee:06:86:9b:32:54:
                    39:9e:b6:cc:16:1a:33:21:d9:01:2e:37:ad:df:95:
                    f7:f9:20:f6:47:c6:f2:29:1f:6b:de:24:06:57:79:
                    61:cf:d5:16:68:13:f3:07:73:f8:62:22:4d:85:0f:
                    e2:fc:50:c0:3b:48:77:79:4e:c4:35:4a:43:02:30:
                    c3:a8:e6:93:db:16:d9:83:44:12:0d:7e:da:9c:f3:
                    fc:bf:be:8a:34:7d:99:21:69:3b:1e:9c:16:80:86:
                    55:eb
                Exponent: 65537 (0x10001)
        X509v3 extensions:
            X509v3 Key Usage: critical
                Digital Signature
            X509v3 Basic Constraints: 
                CA:FALSE
            X509v3 Extended Key Usage: 
                TLS Web Server Authentication
            X509v3 Subject Key Identifier: 
                E5:CB:7C:B2:B7:80:D3:73:06:4E:21:E5:56:44:EB:CF:5B:60:F7:B8
            X509v3 Authority Key Identifier: 
                keyid:BF:E1:1C:F0:22:48:8F:FC:3B:CF:5D:D9:ED:AE:88:70:21:DF:DD:86

            Authority Information Access: 
                CA Issuers - URI:http://pki.esodemoapp2.com/ca/tls-ca.cer

            X509v3 CRL Distribution Points: 

                Full Name:
                  URI:http://pki.esodemoapp2.com/ca/tls-ca.crl

            X509v3 Subject Alternative Name: 
                DNS:webhook.domain.local, DNS:webhook-srv, DNS:webhook-srv.kube-system, DNS:webhook-srv.kube-system.svc, DNS:webhook-srv.kube-system.svc.cluster.local
    Signature Algorithm: sha1WithRSAEncryption
         29:0f:35:9e:7e:cf:b3:e3:2b:01:b6:dd:b5:aa:64:07:8f:a7:
         79:98:f6:d2:6c:60:1e:98:bf:ba:e9:24:d5:63:23:63:03:e9:
         64:13:0d:a1:cb:b7:0b:98:22:00:d4:8a:e7:32:d3:92:69:a5:
         96:72:8a:e9:a2:f5:13:ee:d6:91:39:02:51:90:57:62:44:c7:
         92:61:04:f5:2c:30:bf:df:96:b3:99:11:53:e3:ca:09:bb:b4:
         1f:ce:e4:68:f5:8f:bc:6f:d3:5b:f9:e4:50:ac:0b:f2:97:f1:
         90:6d:53:0b:01:ee:1c:98:27:19:b3:da:8c:4b:e4:ec:31:7c:
         63:a3:63:a5:f4:7a:cb:02:9b:31:0a:66:5b:c7:ab:94:8a:0c:
         cc:77:e5:a6:bc:e9:4b:89:43:52:94:88:e9:84:3d:fb:f2:c5:
         22:fc:ae:c1:41:c6:07:ee:13:fc:60:bd:42:c3:8c:5d:b3:16:
         6b:eb:ba:af:eb:43:45:1b:81:54:ae:d8:6b:42:2a:f4:e2:b3:
         5c:36:b2:aa:1d:3b:d4:b5:10:aa:88:39:11:5e:f1:b1:47:9c:
         b9:09:4c:4b:36:cc:47:1d:fd:1c:f1:cf:2c:51:27:e2:7c:bf:
         69:e0:7f:80:64:e3:09:07:e0:66:7e:3f:65:97:a6:a1:d8:d4:
         72:77:5b:0c
-----BEGIN CERTIFICATE-----
MIIEqzCCA5OgAwIBAgIBNzANBgkqhkiG9w0BAQUFADBXMQswCQYDVQQGEwJVUzEP
MA0GA1UECgwGR29vZ2xlMRMwEQYDVQQLDApFbnRlcnByaXNlMSIwIAYDVQQDDBlF
bnRlcnByaXNlIFN1Ym9yZGluYXRlIENBMB4XDTIxMTAyMzEyMDgyOFoXDTI3MDQx
NTEyMDgyOFowUDELMAkGA1UEBhMCVVMxDzANBgNVBAoMBkdvb2dsZTETMBEGA1UE
CwwKRW50ZXJwcmlzZTEbMBkGA1UEAwwSd2ViaG9vay5kb21haW4uY29tMIIBIjAN
BgkqhkiG9w0BAQEFAAOCAQ8AMIIBCgKCAQEAvu6QJ7spJt+H/Z/aQqB5sMKK4MYW
wP2+xfAFrvGyGfJrqCxNU+1RPE1eHlyNhkwJUX5SU9lvcuIaHsmKYHijwy0zy3nk
9Jcy2X2ZYeT8gOstPCfOPFVU1jQeFxLtbR64COfUiWT9M+UowPkAJfPzJgi6mPTQ
TG8+y1+x2O3gKvmCtOQNdUr8Jf9coydRAKwDlmGsaTqaGjxmlqRAlZTuBoabMlQ5
nrbMFhozIdkBLjet35X3+SD2R8byKR9r3iQGV3lhz9UWaBPzB3P4YiJNhQ/i/FDA
O0h3eU7ENUpDAjDDqOaT2xbZg0QSDX7anPP8v76KNH2ZIWk7HpwWgIZV6wIDAQAB
o4IBhzCCAYMwDgYDVR0PAQH/BAQDAgeAMAkGA1UdEwQCMAAwEwYDVR0lBAwwCgYI
KwYBBQUHAwEwHQYDVR0OBBYEFOXLfLK3gNNzBk4h5VZE689bYPe4MB8GA1UdIwQY
MBaAFL/hHPAiSI/8O89d2e2uiHAh392GMEQGCCsGAQUFBwEBBDgwNjA0BggrBgEF
BQcwAoYoaHR0cDovL3BraS5lc29kZW1vYXBwMi5jb20vY2EvdGxzLWNhLmNlcjA5
BgNVHR8EMjAwMC6gLKAqhihodHRwOi8vcGtpLmVzb2RlbW9hcHAyLmNvbS9jYS90
bHMtY2EuY3JsMIGPBgNVHREEgYcwgYSCFHdlYmhvb2suZG9tYWluLmxvY2Fsggt3
ZWJob29rLXNydoIXd2ViaG9vay1zcnYua3ViZS1zeXN0ZW2CG3dlYmhvb2stc3J2
Lmt1YmUtc3lzdGVtLnN2Y4Ipd2ViaG9vay1zcnYua3ViZS1zeXN0ZW0uc3ZjLmNs
dXN0ZXIubG9jYWwwDQYJKoZIhvcNAQEFBQADggEBACkPNZ5+z7PjKwG23bWqZAeP
p3mY9tJsYB6Yv7rpJNVjI2MD6WQTDaHLtwuYIgDUiucy05JppZZyiumi9RPu1pE5
AlGQV2JEx5JhBPUsML/flrOZEVPjygm7tB/O5Gj1j7xv01v55FCsC/KX8ZBtUwsB
7hyYJxmz2oxL5OwxfGOjY6X0essCmzEKZlvHq5SKDMx35aa86UuJQ1KUiOmEPfvy
xSL8rsFBxgfuE/xgvULDjF2zFmvruq/rQ0UbgVSu2GtCKvTis1w2sqodO9S1EKqI
ORFe8bFHnLkJTEs2zEcd/RzxzyxRJ+J8v2ngf4Bk4wkH4GZ+P2WXpqHY1HJ3Www=
-----END CERTIFICATE-----
