Certificate:
    Data:
        Version: 3 (0x2)
        Serial Number: 56 (0x38)
        Signature Algorithm: sha1WithRSAEncryption
        Issuer: C=US, O=Google, OU=Enterprise, CN=Enterprise Subordinate CA
        Validity
            Not Before: Oct 24 12:13:40 2021 GMT
            Not After : Apr 16 12:13:40 2027 GMT
        Subject: C=US, O=Google, OU=Enterprise, CN=webhook.esodemoapp2.com
        Subject Public Key Info:
            Public Key Algorithm: rsaEncryption
                RSA Public-Key: (2048 bit)
                Modulus:
                    00:b3:70:61:6f:39:6e:a6:d3:ee:c1:58:92:d8:c4:
                    62:a5:51:6c:de:29:65:0d:6c:c1:1e:18:74:75:d6:
                    af:59:44:e0:cf:57:62:aa:1c:2f:b7:ff:46:0e:25:
                    8e:ac:9e:86:c2:f6:84:88:ee:c1:28:13:3a:c1:54:
                    8c:30:c6:ed:7e:c6:0e:fc:f3:2b:ab:8b:bc:e2:84:
                    ba:fd:af:96:14:6a:39:1f:35:b4:fa:b3:d6:4c:f9:
                    c0:bc:41:c9:d6:5c:a5:59:b4:a2:c1:5f:24:71:d9:
                    51:2d:c6:5c:d8:4d:d9:30:f9:12:60:90:4f:4c:c4:
                    bc:ef:9f:43:de:55:82:52:47:63:1d:41:31:44:01:
                    d8:f3:b4:ab:e0:c0:8a:95:40:fa:12:fa:78:fd:cf:
                    3b:ae:b6:64:eb:45:83:d5:fa:1f:c9:ae:4e:89:29:
                    bb:8b:9e:3e:3b:c9:1b:e2:f5:f8:73:87:52:ae:a6:
                    23:57:20:f0:54:bd:cd:06:17:ef:21:ee:d7:9a:65:
                    f0:0c:0c:c3:6e:e6:b6:53:3d:d1:89:68:f5:6e:ce:
                    70:af:e5:d6:e6:2c:5c:6d:10:e3:a9:fd:af:f3:45:
                    c5:6e:b5:a6:a9:5f:7d:85:f2:70:24:56:65:e5:19:
                    83:57:a2:79:d3:33:1d:b8:74:f5:6c:00:73:37:21:
                    5a:83
                Exponent: 65537 (0x10001)
        X509v3 extensions:
            X509v3 Key Usage: critical
                Digital Signature
            X509v3 Basic Constraints: 
                CA:FALSE
            X509v3 Extended Key Usage: 
                TLS Web Server Authentication
            X509v3 Subject Key Identifier: 
                85:39:04:D9:6F:94:93:E2:B3:3F:75:B9:87:F0:73:0A:B5:3D:48:28
            X509v3 Authority Key Identifier: 
                keyid:BF:E1:1C:F0:22:48:8F:FC:3B:CF:5D:D9:ED:AE:88:70:21:DF:DD:86

            Authority Information Access: 
                CA Issuers - URI:http://pki.esodemoapp2.com/ca/tls-ca.cer

            X509v3 CRL Distribution Points: 

                Full Name:
                  URI:http://pki.esodemoapp2.com/ca/tls-ca.crl

            X509v3 Subject Alternative Name: 
                DNS:webhook.esodemoapp2.com
    Signature Algorithm: sha1WithRSAEncryption
         46:67:95:06:e2:a0:bb:27:b2:23:48:d2:1f:78:20:f1:5b:53:
         c0:6c:d8:c0:1e:1d:02:0c:9d:23:a4:4b:69:c7:e2:e1:2c:d6:
         2e:d5:88:4f:70:7e:a7:c4:ea:02:13:f4:d9:4d:46:24:74:5f:
         25:ef:35:f0:a1:b5:33:18:26:7a:e5:fa:f7:c7:bf:d6:58:c9:
         66:59:82:3e:0e:8a:4f:cf:0c:e3:36:b0:70:7f:20:74:d7:7d:
         96:db:81:05:ac:15:88:c9:1a:ff:82:4b:5d:5d:e6:30:9c:54:
         a4:5b:77:db:03:1a:05:b6:13:26:f5:aa:d5:8d:d0:d5:80:85:
         d6:dc:07:b6:4a:d9:54:28:f2:75:c0:4c:f6:87:9c:c0:75:6f:
         0d:85:8e:d0:51:c6:01:ee:34:e0:31:dd:f1:aa:19:d5:1e:7b:
         56:d4:83:e6:bc:a8:43:c2:68:a0:d1:ff:07:85:fd:83:5a:00:
         83:aa:11:da:d7:20:41:16:a7:17:eb:17:25:a0:7a:05:af:cb:
         c7:4e:39:04:39:4e:a9:88:d1:72:eb:c4:ec:45:de:bf:8e:9b:
         3c:d5:36:60:2d:50:f7:13:de:e9:53:f0:1d:15:27:c9:88:a5:
         7a:2c:db:61:89:89:69:06:fc:c0:2e:70:4e:7d:32:c0:1d:32:
         93:65:94:45
-----BEGIN CERTIFICATE-----
MIIEQjCCAyqgAwIBAgIBODANBgkqhkiG9w0BAQUFADBXMQswCQYDVQQGEwJVUzEP
MA0GA1UECgwGR29vZ2xlMRMwEQYDVQQLDApFbnRlcnByaXNlMSIwIAYDVQQDDBlF
bnRlcnByaXNlIFN1Ym9yZGluYXRlIENBMB4XDTIxMTAyNDEyMTM0MFoXDTI3MDQx
NjEyMTM0MFowVTELMAkGA1UEBhMCVVMxDzANBgNVBAoMBkdvb2dsZTETMBEGA1UE
CwwKRW50ZXJwcmlzZTEgMB4GA1UEAwwXd2ViaG9vay5lc29kZW1vYXBwMi5jb20w
ggEiMA0GCSqGSIb3DQEBAQUAA4IBDwAwggEKAoIBAQCzcGFvOW6m0+7BWJLYxGKl
UWzeKWUNbMEeGHR11q9ZRODPV2KqHC+3/0YOJY6snobC9oSI7sEoEzrBVIwwxu1+
xg788yuri7zihLr9r5YUajkfNbT6s9ZM+cC8QcnWXKVZtKLBXyRx2VEtxlzYTdkw
+RJgkE9MxLzvn0PeVYJSR2MdQTFEAdjztKvgwIqVQPoS+nj9zzuutmTrRYPV+h/J
rk6JKbuLnj47yRvi9fhzh1KupiNXIPBUvc0GF+8h7teaZfAMDMNu5rZTPdGJaPVu
znCv5dbmLFxtEOOp/a/zRcVutaapX32F8nAkVmXlGYNXonnTMx24dPVsAHM3IVqD
AgMBAAGjggEZMIIBFTAOBgNVHQ8BAf8EBAMCB4AwCQYDVR0TBAIwADATBgNVHSUE
DDAKBggrBgEFBQcDATAdBgNVHQ4EFgQUhTkE2W+Uk+KzP3W5h/BzCrU9SCgwHwYD
VR0jBBgwFoAUv+Ec8CJIj/w7z13Z7a6IcCHf3YYwRAYIKwYBBQUHAQEEODA2MDQG
CCsGAQUFBzAChihodHRwOi8vcGtpLmVzb2RlbW9hcHAyLmNvbS9jYS90bHMtY2Eu
Y2VyMDkGA1UdHwQyMDAwLqAsoCqGKGh0dHA6Ly9wa2kuZXNvZGVtb2FwcDIuY29t
L2NhL3Rscy1jYS5jcmwwIgYDVR0RBBswGYIXd2ViaG9vay5lc29kZW1vYXBwMi5j
b20wDQYJKoZIhvcNAQEFBQADggEBAEZnlQbioLsnsiNI0h94IPFbU8Bs2MAeHQIM
nSOkS2nH4uEs1i7ViE9wfqfE6gIT9NlNRiR0XyXvNfChtTMYJnrl+vfHv9ZYyWZZ
gj4Oik/PDOM2sHB/IHTXfZbbgQWsFYjJGv+CS11d5jCcVKRbd9sDGgW2Eyb1qtWN
0NWAhdbcB7ZK2VQo8nXATPaHnMB1bw2FjtBRxgHuNOAx3fGqGdUee1bUg+a8qEPC
aKDR/weF/YNaAIOqEdrXIEEWpxfrFyWgegWvy8dOOQQ5TqmI0XLrxOxF3r+OmzzV
NmAtUPcT3ulT8B0VJ8mIpXos22GJiWkG/MAucE59MsAdMpNllEU=
-----END CERTIFICATE-----
